target datalayout = "e-m:e-p270:32:32-p271:32:32-p272:64:64-i64:64-i128:128-f80:128-n8:16:32:64-S128"
target triple = "x86_64-pc-linux-gnu"

; Function Attrs: nounwind uwtable
define void @stbir__simple_alpha_unweight_2ch(ptr noundef %0, i32 noundef %1) #3 {
  %3 = alloca ptr, align 8
  %4 = alloca i32, align 4
  %5 = alloca ptr, align 8
  %6 = alloca ptr, align 8
  %7 = alloca float, align 4
  store ptr %0, ptr %3, align 8, !tbaa !21
  store i32 %1, ptr %4, align 4, !tbaa !26
  call void @llvm.lifetime.start.p0(i64 8, ptr %5) #12
  %8 = load ptr, ptr %3, align 8, !tbaa !21
  store ptr %8, ptr %5, align 8, !tbaa !21
  call void @llvm.lifetime.start.p0(i64 8, ptr %6) #12
  %9 = load ptr, ptr %3, align 8, !tbaa !21
  %10 = load i32, ptr %4, align 4, !tbaa !26
  %11 = sext i32 %10 to i64
  %12 = getelementptr inbounds float, ptr %9, i64 %11
  store ptr %12, ptr %6, align 8, !tbaa !21
  br label %13

13:                                               ; preds = %28, %2
  call void @llvm.lifetime.start.p0(i64 4, ptr %7) #12
  %14 = load ptr, ptr %5, align 8, !tbaa !21
  %15 = getelementptr inbounds float, ptr %14, i64 1
  %16 = load float, ptr %15, align 4, !tbaa !29
  store float %16, ptr %7, align 4, !tbaa !29
  %17 = load float, ptr %7, align 4, !tbaa !29
  %18 = fcmp oge float %17, 0x3870000000000000
  br i1 %18, label %19, label %25

19:                                               ; preds = %13
  %20 = load float, ptr %7, align 4, !tbaa !29
  %21 = load ptr, ptr %5, align 8, !tbaa !21
  %22 = getelementptr inbounds float, ptr %21, i64 0
  %23 = load float, ptr %22, align 4, !tbaa !29
  %24 = fdiv float %23, %20
  store float %24, ptr %22, align 4, !tbaa !29
  br label %25

25:                                               ; preds = %19, %13
  %26 = load ptr, ptr %5, align 8, !tbaa !21
  %27 = getelementptr inbounds float, ptr %26, i64 2
  store ptr %27, ptr %5, align 8, !tbaa !21
  call void @llvm.lifetime.end.p0(i64 4, ptr %7) #12
  br label %28

28:                                               ; preds = %25
  %29 = load ptr, ptr %5, align 8, !tbaa !21
  %30 = load ptr, ptr %6, align 8, !tbaa !21
  %31 = icmp ult ptr %29, %30
  br i1 %31, label %13, label %32, !llvm.loop !514

32:                                               ; preds = %28
  call void @llvm.lifetime.end.p0(i64 8, ptr %6) #12
  call void @llvm.lifetime.end.p0(i64 8, ptr %5) #12
  ret void
}