; Function Attrs: nofree norecurse nosync nounwind memory(argmem: readwrite) uwtable
define void @stbir__simple_alpha_unweight_2ch(ptr noundef captures(address) %0, i32 noundef %1) #6 {
  %3 = sext i32 %1 to i64
  %4 = getelementptr inbounds float, ptr %0, i64 %3
  br label %5

5:                                                ; preds = %12, %2
  %.0 = phi ptr [ %0, %2 ], [ %13, %12 ]
  %6 = getelementptr inbounds nuw i8, ptr %.0, i64 4
  %7 = load float, ptr %6, align 4, !tbaa !50
  %8 = fcmp ult float %7, 0x3870000000000000
  br i1 %8, label %12, label %9

9:                                                ; preds = %5
  %10 = load float, ptr %.0, align 4, !tbaa !50
  %11 = fdiv float %10, %7
  store float %11, ptr %.0, align 4, !tbaa !50
  br label %12

12:                                               ; preds = %9, %5
  %13 = getelementptr inbounds nuw i8, ptr %.0, i64 8
  %14 = icmp ult ptr %13, %4
  br i1 %14, label %5, label %15, !llvm.loop !440

15:                                               ; preds = %12
  ret void
}